; Function Attrs: nounwind uwtable
define hidden i32 @Curl_h1_req_write_head(ptr noundef %0, i32 noundef %1, ptr noundef %2) local_unnamed_addr #0 {
  %4 = getelementptr inbounds nuw i8, ptr %0, i64 24
  %5 = load ptr, ptr %4, align 8, !tbaa !25
  %.not = icmp eq ptr %5, null
  %spec.select = select i1 %.not, ptr @.str.1, ptr %5
  %6 = select i1 %.not, ptr @.str.1, ptr @.str.2
  %7 = getelementptr inbounds nuw i8, ptr %0, i64 32
  %8 = load ptr, ptr %7, align 8, !tbaa !29
  %.not21 = icmp eq ptr %8, null
  %9 = select i1 %.not21, ptr @.str.1, ptr %8
  %10 = getelementptr inbounds nuw i8, ptr %0, i64 40
  %11 = load ptr, ptr %10, align 8, !tbaa !30
  %.not22 = icmp eq ptr %11, null
  %12 = select i1 %.not22, ptr @.str.1, ptr %11
  %13 = tail call i32 (ptr, ptr, ...) @Curl_dyn_addf(ptr noundef %2, ptr noundef nonnull @.str, ptr noundef %0, ptr noundef nonnull %spec.select, ptr noundef nonnull %6, ptr noundef nonnull %9, ptr noundef nonnull %12, i32 noundef %1) #6
  %.not23 = icmp eq i32 %13, 0
  br i1 %.not23, label %14, label %19

14:                                               ; preds = %3
  %15 = getelementptr inbounds nuw i8, ptr %0, i64 48
  %16 = tail call i32 @Curl_dynhds_h1_dprint(ptr noundef nonnull %15, ptr noundef %2) #6
  %.not24 = icmp eq i32 %16, 0
  br i1 %.not24, label %17, label %19

17:                                               ; preds = %14
  %18 = tail call i32 @Curl_dyn_addn(ptr noundef %2, ptr noundef nonnull @.str.3, i64 noundef 2) #6
  br label %19

19:                                               ; preds = %14, %3, %17
  %.0 = phi i32 [ %13, %3 ], [ %16, %14 ], [ %18, %17 ]
  ret i32 %.0
}